target datalayout = "e-m:e-p270:32:32-p271:32:32-p272:64:64-i64:64-i128:128-f80:128-n8:16:32:64-S128"
target triple = "x86_64-pc-linux-gnu"

%class.rational = type { %class.mpq }
%class.mpq = type { %class.mpz, %class.mpz }
%class.mpz = type { i32, i8, ptr }
%"struct.nla::common" = type { ptr, %"class.nla::nex_creator" }
%"class.nla::nex_creator" = type { %class.ptr_vector, %"class.std::unordered_map", %"class.std::unordered_map.2", %class.svector, %"class.nla::nex_creator::mul_factory" }
%class.ptr_vector = type { %class.vector }
%class.vector = type { ptr }
%"class.std::unordered_map" = type { %"class.std::_Hashtable" }
%"class.std::_Hashtable" = type { ptr, i64, %"struct.std::__detail::_Hash_node_base", i64, %"struct.std::__detail::_Prime_rehash_policy", ptr }
%"struct.std::__detail::_Hash_node_base" = type { ptr }
%"struct.std::__detail::_Prime_rehash_policy" = type { float, i64 }
%"class.std::unordered_map.2" = type { %"class.std::_Hashtable.3" }
%"class.std::_Hashtable.3" = type { ptr, i64, %"struct.std::__detail::_Hash_node_base", i64, %"struct.std::__detail::_Prime_rehash_policy", ptr }
%"class.nla::nex_creator::mul_factory" = type { ptr, %class.rational, %class.vector.17 }
%class.vector.17 = type { ptr }
%class.svector = type { %class.vector.16 }
%class.vector.16 = type { ptr }
%"class.nla::factorization" = type { %class.svector.83, ptr }
%class.svector.83 = type { %class.vector.84 }
%class.vector.84 = type { ptr }
%"class.nla::factor" = type <{ i32, i32, i8, [3 x i8] }>

; Function Attrs: mustprogress nounwind uwtable
define linkonce_odr hidden noundef nonnull align 4 dereferenceable(9) ptr @_ZNK6vectorIN3nla6factorELb0EjEixEj(ptr noundef nonnull align 8 dereferenceable(8) %0, i32 noundef %1) #4 comdat align 2 {
  %3 = alloca ptr, align 8
  %4 = alloca i32, align 4
  store ptr %0, ptr %3, align 8, !tbaa !331
  store i32 %1, ptr %4, align 4, !tbaa !8
  %5 = load ptr, ptr %3, align 8
  %6 = getelementptr inbounds nuw %class.vector.84, ptr %5, i32 0, i32 0
  %7 = load ptr, ptr %6, align 8, !tbaa !333
  %8 = load i32, ptr %4, align 4, !tbaa !8
  %9 = zext i32 %8 to i64
  %10 = getelementptr inbounds nuw %"class.nla::factor", ptr %7, i64 %9
  ret ptr %10
}

; Function Attrs: mustprogress uwtable
define linkonce_odr hidden noundef nonnull align 4 dereferenceable(9) ptr @_ZNK3nla13factorizationixEj(ptr noundef nonnull align 8 dereferenceable(16) %0, i32 noundef %1) #6 comdat align 2 {
  %3 = alloca ptr, align 8
  %4 = alloca i32, align 4
  store ptr %0, ptr %3, align 8, !tbaa !79
  store i32 %1, ptr %4, align 4, !tbaa !8
  %5 = load ptr, ptr %3, align 8
  %6 = getelementptr inbounds nuw %"class.nla::factorization", ptr %5, i32 0, i32 0
  %7 = load i32, ptr %4, align 4, !tbaa !8
  %8 = call noundef nonnull align 4 dereferenceable(9) ptr @_ZNK6vectorIN3nla6factorELb0EjEixEj(ptr noundef nonnull align 8 dereferenceable(8) %6, i32 noundef %7)
  ret ptr %8
}

; Function Attrs: mustprogress nounwind uwtable
define linkonce_odr hidden noundef nonnull align 8 dereferenceable(4736) ptr @_ZN3nla6common1cEv(ptr noundef nonnull align 8 dereferenceable(184) %0) #4 comdat align 2 {
  %2 = alloca ptr, align 8
  store ptr %0, ptr %2, align 8, !tbaa !22
  %3 = load ptr, ptr %2, align 8
  %4 = getelementptr inbounds nuw %"struct.nla::common", ptr %3, i32 0, i32 0
  %5 = load ptr, ptr %4, align 8, !tbaa !24
  ret ptr %5
}

; Function Attrs: mustprogress nounwind uwtable
define linkonce_odr hidden void @_ZN3nla6factorC2Ev(ptr noundef nonnull align 4 dereferenceable(9) %0) unnamed_addr #4 comdat align 2 {
  %2 = alloca ptr, align 8
  store ptr %0, ptr %2, align 8, !tbaa !87
  %3 = load ptr, ptr %2, align 8
  %4 = getelementptr inbounds nuw %"class.nla::factor", ptr %3, i32 0, i32 0
  store i32 -1, ptr %4, align 4, !tbaa !265
  %5 = getelementptr inbounds nuw %"class.nla::factor", ptr %3, i32 0, i32 1
  store i32 0, ptr %5, align 4, !tbaa !267
  %6 = getelementptr inbounds nuw %"class.nla::factor", ptr %3, i32 0, i32 2
  store i8 0, ptr %6, align 4, !tbaa !268
  ret void
}

; Function Attrs: mustprogress uwtable
define hidden noundef zeroext i1 @_ZN3nla5order24order_lemma_on_ac_and_bcERKNS_5monicERKNS_13factorizationEbS3_(ptr noundef nonnull align 8 dereferenceable(184) %0, ptr noundef nonnull align 8 dereferenceable(34) %1, ptr noundef nonnull align 8 dereferenceable(16) %2, i1 noundef zeroext %3, ptr noundef nonnull align 8 dereferenceable(34) %4) #6 align 2 {
  %6 = alloca ptr, align 8
  %7 = alloca ptr, align 8
  %8 = alloca ptr, align 8
  %9 = alloca i8, align 1
  %10 = alloca ptr, align 8
  %11 = alloca %"class.nla::factor", align 4
  store ptr %0, ptr %6, align 8, !tbaa !16
  store ptr %1, ptr %7, align 8, !tbaa !63
  store ptr %2, ptr %8, align 8, !tbaa !79
  %12 = zext i1 %3 to i8
  store i8 %12, ptr %9, align 1, !tbaa !10
  store ptr %4, ptr %10, align 8, !tbaa !63
  %13 = load ptr, ptr %6, align 8
  call void @llvm.lifetime.start.p0(i64 12, ptr %11) #3
  call void @_ZN3nla6factorC2Ev(ptr noundef nonnull align 4 dereferenceable(9) %11) #3
  %14 = call noundef nonnull align 8 dereferenceable(4736) ptr @_ZN3nla6common1cEv(ptr noundef nonnull align 8 dereferenceable(184) %13)
  %15 = load ptr, ptr %10, align 8, !tbaa !63
  %16 = load ptr, ptr %8, align 8, !tbaa !79
  %17 = load i8, ptr %9, align 1, !tbaa !10, !range !12, !noundef !13
  %18 = trunc i8 %17 to i1
  %19 = zext i1 %18 to i32
  %20 = call noundef nonnull align 4 dereferenceable(9) ptr @_ZNK3nla13factorizationixEj(ptr noundef nonnull align 8 dereferenceable(16) %16, i32 noundef %19)
  %21 = call noundef zeroext i1 @_ZNK3nla4core6divideERKNS_5monicERKNS_6factorERS4_(ptr noundef nonnull align 8 dereferenceable(4736) %14, ptr noundef nonnull align 8 dereferenceable(34) %15, ptr noundef nonnull align 4 dereferenceable(9) %20, ptr noundef nonnull align 4 dereferenceable(9) %11)
  br i1 %21, label %22, label %37

22:                                               ; preds = %5
  %23 = load ptr, ptr %7, align 8, !tbaa !63
  %24 = load ptr, ptr %8, align 8, !tbaa !79
  %25 = load i8, ptr %9, align 1, !tbaa !10, !range !12, !noundef !13
  %26 = trunc i8 %25 to i1
  %27 = xor i1 %26, true
  %28 = zext i1 %27 to i32
  %29 = call noundef nonnull align 4 dereferenceable(9) ptr @_ZNK3nla13factorizationixEj(ptr noundef nonnull align 8 dereferenceable(16) %24, i32 noundef %28)
  %30 = load ptr, ptr %8, align 8, !tbaa !79
  %31 = load i8, ptr %9, align 1, !tbaa !10, !range !12, !noundef !13
  %32 = trunc i8 %31 to i1
  %33 = zext i1 %32 to i32
  %34 = call noundef nonnull align 4 dereferenceable(9) ptr @_ZNK3nla13factorizationixEj(ptr noundef nonnull align 8 dereferenceable(16) %30, i32 noundef %33)
  %35 = load ptr, ptr %10, align 8, !tbaa !63
  %36 = call noundef zeroext i1 @_ZN3nla5order36order_lemma_on_ac_and_bc_and_factorsERKNS_5monicERKNS_6factorES6_S3_S6_(ptr noundef nonnull align 8 dereferenceable(184) %13, ptr noundef nonnull align 8 dereferenceable(34) %23, ptr noundef nonnull align 4 dereferenceable(9) %29, ptr noundef nonnull align 4 dereferenceable(9) %34, ptr noundef nonnull align 8 dereferenceable(34) %35, ptr noundef nonnull align 4 dereferenceable(9) %11)
  br label %37

37:                                               ; preds = %22, %5
  %38 = phi i1 [ false, %5 ], [ %36, %22 ]
  call void @llvm.lifetime.end.p0(i64 12, ptr %11) #3
  ret i1 %38
}