; Function Attrs: mustprogress uwtable
define hidden noundef zeroext i1 @_ZN3nla5order24order_lemma_on_ac_and_bcERKNS_5monicERKNS_13factorizationEbS3_(ptr noundef nonnull align 8 dereferenceable(184) %0, ptr noundef nonnull align 8 dereferenceable(34) %1, ptr noundef nonnull readonly align 8 captures(none) dereferenceable(16) %2, i1 noundef zeroext %3, ptr noundef nonnull align 8 dereferenceable(34) %4) local_unnamed_addr #4 align 2 {
  %6 = alloca %"class.nla::factor", align 4
  call void @llvm.lifetime.start.p0(i64 12, ptr nonnull %6) #20
  store i32 -1, ptr %6, align 4, !tbaa !250
  %7 = getelementptr inbounds nuw i8, ptr %6, i64 4
  store i32 0, ptr %7, align 4, !tbaa !253
  %8 = getelementptr inbounds nuw i8, ptr %6, i64 8
  store i8 0, ptr %8, align 4, !tbaa !254
  %9 = load ptr, ptr %0, align 8, !tbaa !3
  %10 = load ptr, ptr %2, align 8, !tbaa !50
  %11 = zext i1 %3 to i64
  %12 = getelementptr inbounds nuw %"class.nla::factor", ptr %10, i64 %11
  %13 = call noundef zeroext i1 @_ZNK3nla4core6divideERKNS_5monicERKNS_6factorERS4_(ptr noundef nonnull align 8 dereferenceable(4736) %9, ptr noundef nonnull align 8 dereferenceable(34) %4, ptr noundef nonnull align 4 dereferenceable(9) %12, ptr noundef nonnull align 4 dereferenceable(9) %6)
  br i1 %13, label %14, label %21

14:                                               ; preds = %5
  %15 = xor i1 %3, true
  %16 = load ptr, ptr %2, align 8, !tbaa !50
  %17 = zext i1 %15 to i64
  %18 = getelementptr inbounds nuw %"class.nla::factor", ptr %16, i64 %17
  %19 = getelementptr inbounds nuw %"class.nla::factor", ptr %16, i64 %11
  %20 = call noundef zeroext i1 @_ZN3nla5order36order_lemma_on_ac_and_bc_and_factorsERKNS_5monicERKNS_6factorES6_S3_S6_(ptr noundef nonnull align 8 dereferenceable(184) %0, ptr noundef nonnull align 8 dereferenceable(34) %1, ptr noundef nonnull align 4 dereferenceable(9) %18, ptr noundef nonnull align 4 dereferenceable(9) %19, ptr noundef nonnull align 8 dereferenceable(34) %4, ptr noundef nonnull align 4 dereferenceable(9) %6)
  br label %21

21:                                               ; preds = %14, %5
  %22 = phi i1 [ false, %5 ], [ %20, %14 ]
  call void @llvm.lifetime.end.p0(i64 12, ptr nonnull %6) #20
  ret i1 %22
}